target datalayout = "e-m:e-p270:32:32-p271:32:32-p272:64:64-i64:64-i128:128-f80:128-n8:16:32:64-S128"
target triple = "x86_64-pc-linux-gnu"

%struct._zend_phpdbg_globals = type { [11 x %struct._zend_array], %struct._zend_array, %struct._zend_array, ptr, ptr, %struct.phpdbg_frame_t, i32, ptr, %struct.phpdbg_lexer_data, ptr, %struct.sigaction, i32, i64, %struct.phpdbg_btree, %struct.phpdbg_btree, %struct._zend_array, %struct._zend_array, %struct._zend_array, %struct._zend_array, ptr, ptr, i8, ptr, ptr, ptr, i64, ptr, %struct._zval_struct, i32, i32, i8, i8, ptr, ptr, ptr, %struct._zend_array, ptr, ptr, ptr, [3 x %struct.anon.10], ptr, %struct.anon.11, i64, [2 x ptr], [3 x ptr], ptr, i8, ptr, ptr, [500 x i8], i32, %struct.phpdbg_signal_safe_mem, ptr, i64, ptr, i64 }
%struct.phpdbg_frame_t = type { i32, ptr, ptr }
%struct.phpdbg_lexer_data = type { i32, ptr, ptr, ptr, ptr, i32 }
%struct.sigaction = type { %union.anon.4, %struct.__sigset_t, i32, ptr }
%union.anon.4 = type { ptr }
%struct.__sigset_t = type { [16 x i64] }
%struct.phpdbg_btree = type { i64, i64, i8, ptr }
%struct._zval_struct = type { %union._zend_value, %union.anon.6, %union.anon.9 }
%union._zend_value = type { i64 }
%union.anon.6 = type { i32 }
%union.anon.9 = type { i32 }
%struct._zend_array = type { %struct._zend_refcounted_h, %union.anon.1, i32, %union.anon.3, i32, i32, i32, i32, i64, ptr }
%struct._zend_refcounted_h = type { i32, %union.anon }
%union.anon = type { i32 }
%union.anon.1 = type { i32 }
%union.anon.3 = type { ptr }
%struct.anon.10 = type { i32 }
%struct.anon.11 = type { i8, i32, i32, ptr, i32 }
%struct.phpdbg_signal_safe_mem = type { ptr, i8, ptr, ptr }
%struct._phpdbg_param = type { i32, i64, i64, %struct.anon, %struct.anon.0, ptr, i64, ptr, ptr }
%struct.anon = type { ptr, i64 }
%struct.anon.0 = type { ptr, ptr }
%struct._phpdbg_breakbase_t = type { i32, i8, i64, i8, ptr }

@phpdbg_globals = external global %struct._zend_phpdbg_globals, align 8
@.str.27 = private unnamed_addr constant [3 x i8] c"on\00", align 1
@.str.28 = private unnamed_addr constant [4 x i8] c"off\00", align 1
@.str.32 = private unnamed_addr constant [19 x i8] c"Breakpoint #%ld %s\00", align 1
@.str.33 = private unnamed_addr constant [31 x i8] c"Failed to find breakpoint #%ld\00", align 1
@.str.34 = private unnamed_addr constant [52 x i8] c"set break used incorrectly: set break [id] <on|off>\00", align 1

; Function Attrs: nounwind uwtable
define hidden i32 @phpdbg_do_set_break(ptr noundef %0) #0 {
  %2 = alloca ptr, align 8
  %3 = alloca ptr, align 8
  store ptr %0, ptr %2, align 8
  %4 = load ptr, ptr %2, align 8
  %5 = getelementptr inbounds %struct._phpdbg_param, ptr %4, i32 0, i32 0
  %6 = load i32, ptr %5, align 8
  switch i32 %6, label %54 [
    i32 6, label %7
  ]

7:                                                ; preds = %1
  %8 = load ptr, ptr %2, align 8
  %9 = getelementptr inbounds %struct._phpdbg_param, ptr %8, i32 0, i32 7
  %10 = load ptr, ptr %9, align 8
  %11 = icmp ne ptr %10, null
  br i1 %11, label %12, label %28

12:                                               ; preds = %7
  %13 = load ptr, ptr %2, align 8
  %14 = getelementptr inbounds %struct._phpdbg_param, ptr %13, i32 0, i32 7
  %15 = load ptr, ptr %14, align 8
  %16 = getelementptr inbounds %struct._phpdbg_param, ptr %15, i32 0, i32 1
  %17 = load i64, ptr %16, align 8
  %18 = icmp ne i64 %17, 0
  br i1 %18, label %19, label %23

19:                                               ; preds = %12
  %20 = load ptr, ptr %2, align 8
  %21 = getelementptr inbounds %struct._phpdbg_param, ptr %20, i32 0, i32 1
  %22 = load i64, ptr %21, align 8
  call void @phpdbg_enable_breakpoint(i64 noundef %22)
  br label %27

23:                                               ; preds = %12
  %24 = load ptr, ptr %2, align 8
  %25 = getelementptr inbounds %struct._phpdbg_param, ptr %24, i32 0, i32 1
  %26 = load i64, ptr %25, align 8
  call void @phpdbg_disable_breakpoint(i64 noundef %26)
  br label %27

27:                                               ; preds = %23, %19
  br label %53

28:                                               ; preds = %7
  %29 = load ptr, ptr %2, align 8
  %30 = getelementptr inbounds %struct._phpdbg_param, ptr %29, i32 0, i32 1
  %31 = load i64, ptr %30, align 8
  %32 = call ptr @phpdbg_find_breakbase(i64 noundef %31)
  store ptr %32, ptr %3, align 8
  %33 = load ptr, ptr %3, align 8
  %34 = icmp ne ptr %33, null
  br i1 %34, label %35, label %46

35:                                               ; preds = %28
  %36 = load i32, ptr getelementptr inbounds (%struct._zend_phpdbg_globals, ptr @phpdbg_globals, i32 0, i32 39, i64 1), align 4
  %37 = load ptr, ptr %2, align 8
  %38 = getelementptr inbounds %struct._phpdbg_param, ptr %37, i32 0, i32 1
  %39 = load i64, ptr %38, align 8
  %40 = load ptr, ptr %3, align 8
  %41 = getelementptr inbounds %struct._phpdbg_breakbase_t, ptr %40, i32 0, i32 3
  %42 = load i8, ptr %41, align 8
  %43 = trunc i8 %42 to i1
  %44 = select i1 %43, ptr @.str.28, ptr @.str.27
  %45 = call i32 (i32, i32, ptr, ...) @phpdbg_print(i32 noundef 3, i32 noundef %36, ptr noundef @.str.32, i64 noundef %39, ptr noundef %44)
  br label %52

46:                                               ; preds = %28
  %47 = load i32, ptr getelementptr inbounds (%struct._zend_phpdbg_globals, ptr @phpdbg_globals, i32 0, i32 39, i64 1), align 4
  %48 = load ptr, ptr %2, align 8
  %49 = getelementptr inbounds %struct._phpdbg_param, ptr %48, i32 0, i32 1
  %50 = load i64, ptr %49, align 8
  %51 = call i32 (i32, i32, ptr, ...) @phpdbg_print(i32 noundef 1, i32 noundef %47, ptr noundef @.str.33, i64 noundef %50)
  br label %52

52:                                               ; preds = %46, %35
  br label %53

53:                                               ; preds = %52, %27
  br label %57

54:                                               ; preds = %1
  %55 = load i32, ptr getelementptr inbounds (%struct._zend_phpdbg_globals, ptr @phpdbg_globals, i32 0, i32 39, i64 1), align 4
  %56 = call i32 (i32, i32, ptr, ...) @phpdbg_print(i32 noundef 1, i32 noundef %55, ptr noundef @.str.34)
  br label %57

57:                                               ; preds = %54, %53
  ret i32 0
}