; Function Attrs: nounwind uwtable
define hidden noundef i32 @phpdbg_do_set_break(ptr nocapture noundef readonly %0) #0 {
  %2 = load i32, ptr %0, align 8
  %cond = icmp eq i32 %2, 6
  br i1 %cond, label %3, label %27

3:                                                ; preds = %1
  %4 = getelementptr inbounds i8, ptr %0, i64 72
  %5 = load ptr, ptr %4, align 8
  %.not = icmp eq ptr %5, null
  br i1 %.not, label %13, label %6

6:                                                ; preds = %3
  %7 = getelementptr inbounds i8, ptr %5, i64 8
  %8 = load i64, ptr %7, align 8
  %.not13 = icmp eq i64 %8, 0
  %9 = getelementptr inbounds i8, ptr %0, i64 8
  %10 = load i64, ptr %9, align 8
  br i1 %.not13, label %12, label %11

11:                                               ; preds = %6
  tail call void @phpdbg_enable_breakpoint(i64 noundef %10) #4
  br label %30

12:                                               ; preds = %6
  tail call void @phpdbg_disable_breakpoint(i64 noundef %10) #4
  br label %30

13:                                               ; preds = %3
  %14 = getelementptr inbounds i8, ptr %0, i64 8
  %15 = load i64, ptr %14, align 8
  %16 = tail call ptr @phpdbg_find_breakbase(i64 noundef %15) #4
  %.not11 = icmp eq ptr %16, null
  %17 = load i32, ptr getelementptr inbounds (%struct._zend_phpdbg_globals, ptr @phpdbg_globals, i64 0, i32 39, i64 1), align 4
  %18 = load i64, ptr %14, align 8
  br i1 %.not11, label %25, label %19

19:                                               ; preds = %13
  %20 = getelementptr inbounds i8, ptr %16, i64 16
  %21 = load i8, ptr %20, align 8
  %22 = and i8 %21, 1
  %.not12 = icmp eq i8 %22, 0
  %23 = select i1 %.not12, ptr @.str.27, ptr @.str.28
  %24 = tail call i32 (i32, i32, ptr, ...) @phpdbg_print(i32 noundef 3, i32 noundef %17, ptr noundef nonnull @.str.32, i64 noundef %18, ptr noundef nonnull %23) #4
  br label %30

25:                                               ; preds = %13
  %26 = tail call i32 (i32, i32, ptr, ...) @phpdbg_print(i32 noundef 1, i32 noundef %17, ptr noundef nonnull @.str.33, i64 noundef %18) #4
  br label %30

27:                                               ; preds = %1
  %28 = load i32, ptr getelementptr inbounds (%struct._zend_phpdbg_globals, ptr @phpdbg_globals, i64 0, i32 39, i64 1), align 4
  %29 = tail call i32 (i32, i32, ptr, ...) @phpdbg_print(i32 noundef 1, i32 noundef %28, ptr noundef nonnull @.str.34) #4
  br label %30

30:                                               ; preds = %12, %11, %25, %19, %27
  ret i32 0
}